target datalayout = "e-m:e-p270:32:32-p271:32:32-p272:64:64-i64:64-i128:128-f80:128-n8:16:32:64-S128"
target triple = "x86_64-pc-linux-gnu"

%"struct.pxrInternal_v0_24__pxrReserved__::TfDebug::_Node" = type { %"struct.std::atomic.233" }
%"struct.std::atomic.233" = type { i32 }
%"class.std::__cxx11::basic_string" = type { %"struct.std::__cxx11::basic_string<char>::_Alloc_hider", i64, %union.anon }
%"struct.std::__cxx11::basic_string<char>::_Alloc_hider" = type { ptr }
%union.anon = type { i64, [8 x i8] }
%"class.pxrInternal_v0_24__pxrReserved__::TfToken" = type { %"class.pxrInternal_v0_24__pxrReserved__::TfPointerAndBits" }
%"class.pxrInternal_v0_24__pxrReserved__::TfPointerAndBits" = type { ptr }
%"struct.pxrInternal_v0_24__pxrReserved__::TfToken::_Rep" = type { %"struct.std::atomic.159", i32, i64, %"class.std::__cxx11::basic_string", ptr }
%"struct.std::atomic.159" = type { %"struct.std::__atomic_base.160" }
%"struct.std::__atomic_base.160" = type { i32 }

@.str.14 = private unnamed_addr constant [1 x i8] zeroinitializer, align 1
@.str.22 = private unnamed_addr constant [30 x i8] c"%s for prim <%s> derived: %s\0A\00", align 1
@_ZN32pxrInternal_v0_24__pxrReserved__7TfDebug5_DataINS_38USD_AUTO_APPLY_API_SCHEMAS__DebugCodesEE5nodesE = linkonce_odr global [15 x %"struct.pxrInternal_v0_24__pxrReserved__::TfDebug::_Node"] zeroinitializer, comdat, align 16

; Function Attrs: mustprogress nounwind uwtable
define linkonce_odr noundef i64 @_ZN32pxrInternal_v0_24__pxrReserved__16TfPointerAndBitsIKNS_7TfToken4_RepEE9_GetAlignEv() #1 comdat align 2 {
  ret i64 8
}

; Function Attrs: noreturn nounwind uwtable
define linkonce_odr hidden void @__clang_call_terminate(ptr noundef %0) #4 comdat {
  %2 = call ptr @__cxa_begin_catch(ptr %0) #13
  call void @_ZSt9terminatev() #16
  unreachable
}

; Function Attrs: mustprogress nounwind uwtable
define linkonce_odr noundef i64 @_ZNK32pxrInternal_v0_24__pxrReserved__16TfPointerAndBitsIKNS_7TfToken4_RepEE11GetMaxValueEv(ptr noundef nonnull align 8 dereferenceable(8) %0) #1 comdat align 2 {
  %2 = alloca ptr, align 8
  store ptr %0, ptr %2, align 8
  %3 = call noundef i64 @_ZN32pxrInternal_v0_24__pxrReserved__16TfPointerAndBitsIKNS_7TfToken4_RepEE9_GetAlignEv() #13
  %4 = sub i64 %3, 1
  ret i64 %4
}

; Function Attrs: mustprogress nounwind uwtable
define linkonce_odr noundef ptr @_ZNK32pxrInternal_v0_24__pxrReserved__16TfPointerAndBitsIKNS_7TfToken4_RepEE6_AsPtrEm(ptr noundef nonnull align 8 dereferenceable(8) %0, i64 noundef %1) #1 comdat align 2 {
  %3 = alloca ptr, align 8
  %4 = alloca i64, align 8
  store ptr %0, ptr %3, align 8
  store i64 %1, ptr %4, align 8
  %5 = load i64, ptr %4, align 8
  %6 = inttoptr i64 %5 to ptr
  ret ptr %6
}

; Function Attrs: mustprogress nounwind uwtable
define linkonce_odr noundef i64 @_ZNK32pxrInternal_v0_24__pxrReserved__16TfPointerAndBitsIKNS_7TfToken4_RepEE11_GetBitMaskEv(ptr noundef nonnull align 8 dereferenceable(8) %0) #1 comdat align 2 personality ptr @__gxx_personality_v0 {
  %2 = alloca ptr, align 8
  store ptr %0, ptr %2, align 8
  %3 = load ptr, ptr %2, align 8
  %4 = invoke noundef i64 @_ZNK32pxrInternal_v0_24__pxrReserved__16TfPointerAndBitsIKNS_7TfToken4_RepEE11GetMaxValueEv(ptr noundef nonnull align 8 dereferenceable(8) %3)
          to label %5 unwind label %6

5:                                                ; preds = %1
  ret i64 %4

6:                                                ; preds = %1
  %7 = landingpad { ptr, i32 }
          catch ptr null
  %8 = extractvalue { ptr, i32 } %7, 0
  call void @__clang_call_terminate(ptr %8) #16
  unreachable
}

; Function Attrs: mustprogress nounwind uwtable
define linkonce_odr noundef i64 @_ZNK32pxrInternal_v0_24__pxrReserved__16TfPointerAndBitsIKNS_7TfToken4_RepEE6_AsIntEPS3_(ptr noundef nonnull align 8 dereferenceable(8) %0, ptr noundef %1) #1 comdat align 2 {
  %3 = alloca ptr, align 8
  %4 = alloca ptr, align 8
  store ptr %0, ptr %3, align 8
  store ptr %1, ptr %4, align 8
  %5 = load ptr, ptr %4, align 8
  %6 = ptrtoint ptr %5 to i64
  ret i64 %6
}

; Function Attrs: mustprogress nounwind uwtable
define linkonce_odr noundef ptr @_ZNK32pxrInternal_v0_24__pxrReserved__16TfPointerAndBitsIKNS_7TfToken4_RepEE7_GetPtrEv(ptr noundef nonnull align 8 dereferenceable(8) %0) #1 comdat align 2 {
  %2 = alloca ptr, align 8
  store ptr %0, ptr %2, align 8
  %3 = load ptr, ptr %2, align 8
  %4 = getelementptr inbounds nuw %"class.pxrInternal_v0_24__pxrReserved__::TfPointerAndBits", ptr %3, i32 0, i32 0
  %5 = load ptr, ptr %4, align 8
  %6 = call noundef i64 @_ZNK32pxrInternal_v0_24__pxrReserved__16TfPointerAndBitsIKNS_7TfToken4_RepEE6_AsIntEPS3_(ptr noundef nonnull align 8 dereferenceable(8) %3, ptr noundef %5) #13
  %7 = call noundef i64 @_ZNK32pxrInternal_v0_24__pxrReserved__16TfPointerAndBitsIKNS_7TfToken4_RepEE11_GetBitMaskEv(ptr noundef nonnull align 8 dereferenceable(8) %3) #13
  %8 = xor i64 %7, -1
  %9 = and i64 %6, %8
  %10 = call noundef ptr @_ZNK32pxrInternal_v0_24__pxrReserved__16TfPointerAndBitsIKNS_7TfToken4_RepEE6_AsPtrEm(ptr noundef nonnull align 8 dereferenceable(8) %3, i64 noundef %9) #13
  ret ptr %10
}

; Function Attrs: mustprogress nounwind uwtable
define linkonce_odr noundef ptr @_ZNK32pxrInternal_v0_24__pxrReserved__16TfPointerAndBitsIKNS_7TfToken4_RepEE3GetEv(ptr noundef nonnull align 8 dereferenceable(8) %0) #1 comdat align 2 {
  %2 = alloca ptr, align 8
  store ptr %0, ptr %2, align 8
  %3 = load ptr, ptr %2, align 8
  %4 = call noundef ptr @_ZNK32pxrInternal_v0_24__pxrReserved__16TfPointerAndBitsIKNS_7TfToken4_RepEE7_GetPtrEv(ptr noundef nonnull align 8 dereferenceable(8) %3) #13
  ret ptr %4
}

; Function Attrs: mustprogress nounwind uwtable
define linkonce_odr noundef ptr @_ZN32pxrInternal_v0_24__pxrReserved__19Tf_DebugGetEnumNameENS_38USD_AUTO_APPLY_API_SCHEMAS__DebugCodesE(i32 noundef %0) #1 comdat {
  %2 = alloca i32, align 4
  %3 = alloca [15 x ptr], align 16
  store i32 %0, ptr %2, align 4
  call void @llvm.memcpy.p0.p0.i64(ptr align 16 %3, ptr align 16 @__const._ZN32pxrInternal_v0_24__pxrReserved__19Tf_DebugGetEnumNameENS_38USD_AUTO_APPLY_API_SCHEMAS__DebugCodesE.CStrings, i64 120, i1 false)
  %4 = load i32, ptr %2, align 4
  %5 = sext i32 %4 to i64
  %6 = getelementptr inbounds [15 x ptr], ptr %3, i64 0, i64 %5
  %7 = load ptr, ptr %6, align 8
  ret ptr %7
}

; Function Attrs: mustprogress nounwind uwtable
define linkonce_odr noundef i32 @_ZNKSt6atomicIN32pxrInternal_v0_24__pxrReserved__7TfDebug10_NodeStateEE4loadESt12memory_order(ptr noundef nonnull align 4 dereferenceable(4) %0, i32 noundef %1) #1 comdat align 2 {
  %3 = alloca ptr, align 8
  %4 = alloca i32, align 4
  %5 = alloca [4 x i8], align 4
  %6 = alloca ptr, align 8
  store ptr %0, ptr %3, align 8
  store i32 %1, ptr %4, align 4
  %7 = load ptr, ptr %3, align 8
  %8 = getelementptr inbounds [4 x i8], ptr %5, i64 0, i64 0
  store ptr %8, ptr %6, align 8
  %9 = getelementptr inbounds nuw %"struct.std::atomic.233", ptr %7, i32 0, i32 0
  %10 = load i32, ptr %4, align 4
  %11 = load ptr, ptr %6, align 8
  switch i32 %10, label %12 [
    i32 1, label %14
    i32 2, label %14
    i32 5, label %16
  ]

12:                                               ; preds = %2
  %13 = load atomic i32, ptr %9 monotonic, align 4
  store i32 %13, ptr %11, align 4
  br label %18

14:                                               ; preds = %2, %2
  %15 = load atomic i32, ptr %9 acquire, align 4
  store i32 %15, ptr %11, align 4
  br label %18

16:                                               ; preds = %2
  %17 = load atomic i32, ptr %9 seq_cst, align 4
  store i32 %17, ptr %11, align 4
  br label %18

18:                                               ; preds = %16, %14, %12
  %19 = load ptr, ptr %6, align 8
  %20 = load i32, ptr %19, align 4
  ret i32 %20
}

; Function Attrs: mustprogress nounwind uwtable
define linkonce_odr noundef nonnull align 4 dereferenceable(4) ptr @_ZN32pxrInternal_v0_24__pxrReserved__7TfDebug8_GetNodeINS_38USD_AUTO_APPLY_API_SCHEMAS__DebugCodesEEERNS0_5_NodeET_(i32 noundef %0) #1 comdat align 2 {
  %2 = alloca i32, align 4
  store i32 %0, ptr %2, align 4
  %3 = load i32, ptr %2, align 4
  %4 = sext i32 %3 to i64
  %5 = getelementptr inbounds [15 x %"struct.pxrInternal_v0_24__pxrReserved__::TfDebug::_Node"], ptr @_ZN32pxrInternal_v0_24__pxrReserved__7TfDebug5_DataINS_38USD_AUTO_APPLY_API_SCHEMAS__DebugCodesEE5nodesE, i64 0, i64 %4
  ret ptr %5
}

; Function Attrs: mustprogress nounwind uwtable
define linkonce_odr noundef ptr @_ZNK32pxrInternal_v0_24__pxrReserved__7TfToken7GetTextEv(ptr noundef nonnull align 8 dereferenceable(8) %0) #1 comdat align 2 {
  %2 = alloca ptr, align 8
  %3 = alloca ptr, align 8
  store ptr %0, ptr %2, align 8
  %4 = load ptr, ptr %2, align 8
  %5 = getelementptr inbounds nuw %"class.pxrInternal_v0_24__pxrReserved__::TfToken", ptr %4, i32 0, i32 0
  %6 = call noundef ptr @_ZNK32pxrInternal_v0_24__pxrReserved__16TfPointerAndBitsIKNS_7TfToken4_RepEE3GetEv(ptr noundef nonnull align 8 dereferenceable(8) %5) #13
  store ptr %6, ptr %3, align 8
  %7 = load ptr, ptr %3, align 8
  %8 = icmp ne ptr %7, null
  br i1 %8, label %9, label %13

9:                                                ; preds = %1
  %10 = load ptr, ptr %3, align 8
  %11 = getelementptr inbounds nuw %"struct.pxrInternal_v0_24__pxrReserved__::TfToken::_Rep", ptr %10, i32 0, i32 3
  %12 = call noundef ptr @_ZNKSt7__cxx1112basic_stringIcSt11char_traitsIcESaIcEE5c_strEv(ptr noundef nonnull align 8 dereferenceable(32) %11) #13
  br label %14

13:                                               ; preds = %1
  br label %14

14:                                               ; preds = %13, %9
  %15 = phi ptr [ %12, %9 ], [ @.str.14, %13 ]
  ret ptr %15
}

; Function Attrs: mustprogress uwtable
define linkonce_odr noundef zeroext i1 @_ZN32pxrInternal_v0_24__pxrReserved__7TfDebug9IsEnabledINS_38USD_AUTO_APPLY_API_SCHEMAS__DebugCodesEEEbT_(i32 noundef %0) #0 comdat align 2 {
  %2 = alloca i32, align 4
  %3 = alloca ptr, align 8
  %4 = alloca i32, align 4
  store i32 %0, ptr %2, align 4
  %5 = load i32, ptr %2, align 4
  %6 = call noundef nonnull align 4 dereferenceable(4) ptr @_ZN32pxrInternal_v0_24__pxrReserved__7TfDebug8_GetNodeINS_38USD_AUTO_APPLY_API_SCHEMAS__DebugCodesEEERNS0_5_NodeET_(i32 noundef %5)
  store ptr %6, ptr %3, align 8
  %7 = load ptr, ptr %3, align 8
  %8 = getelementptr inbounds nuw %"struct.pxrInternal_v0_24__pxrReserved__::TfDebug::_Node", ptr %7, i32 0, i32 0
  %9 = call noundef i32 @_ZNKSt6atomicIN32pxrInternal_v0_24__pxrReserved__7TfDebug10_NodeStateEE4loadESt12memory_order(ptr noundef nonnull align 4 dereferenceable(4) %8, i32 noundef 5) #13
  store i32 %9, ptr %4, align 4
  %10 = load i32, ptr %4, align 4
  %11 = icmp eq i32 %10, 0
  br i1 %11, label %12, label %20

12:                                               ; preds = %1
  %13 = load i32, ptr %2, align 4
  %14 = call noundef nonnull align 4 dereferenceable(4) ptr @_ZN32pxrInternal_v0_24__pxrReserved__7TfDebug8_GetNodeINS_38USD_AUTO_APPLY_API_SCHEMAS__DebugCodesEEERNS0_5_NodeET_(i32 noundef %13)
  %15 = load i32, ptr %2, align 4
  %16 = call noundef ptr @_ZN32pxrInternal_v0_24__pxrReserved__19Tf_DebugGetEnumNameENS_38USD_AUTO_APPLY_API_SCHEMAS__DebugCodesE(i32 noundef %15)
  call void @_ZN32pxrInternal_v0_24__pxrReserved__7TfDebug15_InitializeNodeERNS0_5_NodeEPKc(ptr noundef nonnull align 4 dereferenceable(4) %14, ptr noundef %16)
  %17 = load ptr, ptr %3, align 8
  %18 = getelementptr inbounds nuw %"struct.pxrInternal_v0_24__pxrReserved__::TfDebug::_Node", ptr %17, i32 0, i32 0
  %19 = call noundef i32 @_ZNKSt6atomicIN32pxrInternal_v0_24__pxrReserved__7TfDebug10_NodeStateEE4loadESt12memory_order(ptr noundef nonnull align 4 dereferenceable(4) %18, i32 noundef 5) #13
  store i32 %19, ptr %4, align 4
  br label %20

20:                                               ; preds = %12, %1
  %21 = load i32, ptr %4, align 4
  %22 = icmp eq i32 %21, 2
  ret i1 %22
}

; Function Attrs: mustprogress uwtable
define internal void @_ZN32pxrInternal_v0_24__pxrReserved__L18_ClipDerivationMsgINS_7VtArrayINS_7GfVec2dEEEEEvRKNS_7TfTokenERKT_RKNS_7SdfPathE(ptr noundef nonnull align 8 dereferenceable(8) %0, ptr noundef nonnull align 8 dereferenceable(40) %1, ptr noundef nonnull align 4 dereferenceable(8) %2) #0 personality ptr @__gxx_personality_v0 {
  %4 = alloca ptr, align 8
  %5 = alloca ptr, align 8
  %6 = alloca ptr, align 8
  %7 = alloca %"class.std::__cxx11::basic_string", align 8
  %8 = alloca ptr, align 8
  %9 = alloca i32, align 4
  store ptr %0, ptr %4, align 8
  store ptr %1, ptr %5, align 8
  store ptr %2, ptr %6, align 8
  %10 = call noundef zeroext i1 @_ZN32pxrInternal_v0_24__pxrReserved__7TfDebug9IsEnabledINS_38USD_AUTO_APPLY_API_SCHEMAS__DebugCodesEEEbT_(i32 noundef 2)
  br i1 %10, label %12, label %11

11:                                               ; preds = %3
  br label %24

12:                                               ; preds = %3
  %13 = load ptr, ptr %4, align 8
  %14 = call noundef ptr @_ZNK32pxrInternal_v0_24__pxrReserved__7TfToken7GetTextEv(ptr noundef nonnull align 8 dereferenceable(8) %13)
  %15 = load ptr, ptr %6, align 8
  %16 = call noundef ptr @_ZNK32pxrInternal_v0_24__pxrReserved__7SdfPath7GetTextEv(ptr noundef nonnull align 4 dereferenceable(8) %15)
  %17 = load ptr, ptr %5, align 8
  call void @_ZN32pxrInternal_v0_24__pxrReserved__11TfStringifyINS_7VtArrayINS_7GfVec2dEEEEENSt7__cxx1112basic_stringIcSt11char_traitsIcESaIcEEERKT_(ptr dead_on_unwind writable sret(%"class.std::__cxx11::basic_string") align 8 %7, ptr noundef nonnull align 8 dereferenceable(40) %17)
  %18 = call noundef ptr @_ZNKSt7__cxx1112basic_stringIcSt11char_traitsIcESaIcEE5c_strEv(ptr noundef nonnull align 8 dereferenceable(32) %7) #13
  invoke void (ptr, ...) @_ZN32pxrInternal_v0_24__pxrReserved__7TfDebug6Helper3MsgEPKcz(ptr noundef @.str.22, ptr noundef %14, ptr noundef %16, ptr noundef %18)
          to label %19 unwind label %20

19:                                               ; preds = %12
  call void @_ZNSt7__cxx1112basic_stringIcSt11char_traitsIcESaIcEED1Ev(ptr noundef nonnull align 8 dereferenceable(32) %7) #13
  br label %24

20:                                               ; preds = %12
  %21 = landingpad { ptr, i32 }
          cleanup
  %22 = extractvalue { ptr, i32 } %21, 0
  store ptr %22, ptr %8, align 8
  %23 = extractvalue { ptr, i32 } %21, 1
  store i32 %23, ptr %9, align 4
  call void @_ZNSt7__cxx1112basic_stringIcSt11char_traitsIcESaIcEED1Ev(ptr noundef nonnull align 8 dereferenceable(32) %7) #13
  br label %25

24:                                               ; preds = %19, %11
  ret void

25:                                               ; preds = %20
  %26 = load ptr, ptr %8, align 8
  %27 = load i32, ptr %9, align 4
  %28 = insertvalue { ptr, i32 } poison, ptr %26, 0
  %29 = insertvalue { ptr, i32 } %28, i32 %27, 1
  resume { ptr, i32 } %29
}