; Function Attrs: mustprogress uwtable
define internal fastcc void @_ZN32pxrInternal_v0_24__pxrReserved__L18_ClipDerivationMsgINS_7VtArrayINS_7GfVec2dEEEEEvRKNS_7TfTokenERKT_RKNS_7SdfPathE(ptr nocapture noundef nonnull readonly align 8 dereferenceable(8) %0, ptr noundef nonnull align 8 dereferenceable(40) %1, ptr noundef nonnull align 4 dereferenceable(8) %2) unnamed_addr #0 personality ptr @__gxx_personality_v0 {
  %4 = alloca %"class.std::__cxx11::basic_string", align 8
  %5 = load atomic i32, ptr getelementptr inbounds (i8, ptr @_ZN32pxrInternal_v0_24__pxrReserved__7TfDebug5_DataINS_38USD_AUTO_APPLY_API_SCHEMAS__DebugCodesEE5nodesE, i64 8) seq_cst, align 8
  %6 = icmp eq i32 %5, 0
  br i1 %6, label %7, label %_ZN32pxrInternal_v0_24__pxrReserved__7TfDebug9IsEnabledINS_38USD_AUTO_APPLY_API_SCHEMAS__DebugCodesEEEbT_.exit

7:                                                ; preds = %3
  tail call void @_ZN32pxrInternal_v0_24__pxrReserved__7TfDebug15_InitializeNodeERNS0_5_NodeEPKc(ptr noundef nonnull align 4 dereferenceable(4) getelementptr inbounds (i8, ptr @_ZN32pxrInternal_v0_24__pxrReserved__7TfDebug5_DataINS_38USD_AUTO_APPLY_API_SCHEMAS__DebugCodesEE5nodesE, i64 8), ptr noundef nonnull @.str.25)
  %8 = load atomic i32, ptr getelementptr inbounds (i8, ptr @_ZN32pxrInternal_v0_24__pxrReserved__7TfDebug5_DataINS_38USD_AUTO_APPLY_API_SCHEMAS__DebugCodesEE5nodesE, i64 8) seq_cst, align 8
  br label %_ZN32pxrInternal_v0_24__pxrReserved__7TfDebug9IsEnabledINS_38USD_AUTO_APPLY_API_SCHEMAS__DebugCodesEEEbT_.exit

_ZN32pxrInternal_v0_24__pxrReserved__7TfDebug9IsEnabledINS_38USD_AUTO_APPLY_API_SCHEMAS__DebugCodesEEEbT_.exit: ; preds = %3, %7
  %.0.i = phi i32 [ %8, %7 ], [ %5, %3 ]
  %9 = icmp eq i32 %.0.i, 2
  br i1 %9, label %10, label %24

10:                                               ; preds = %_ZN32pxrInternal_v0_24__pxrReserved__7TfDebug9IsEnabledINS_38USD_AUTO_APPLY_API_SCHEMAS__DebugCodesEEEbT_.exit
  %11 = load ptr, ptr %0, align 8
  %12 = ptrtoint ptr %11 to i64
  %13 = and i64 %12, -8
  %.not.i = icmp eq i64 %13, 0
  br i1 %.not.i, label %_ZNK32pxrInternal_v0_24__pxrReserved__7TfToken7GetTextEv.exit, label %14

14:                                               ; preds = %10
  %15 = inttoptr i64 %13 to ptr
  %16 = getelementptr inbounds nuw i8, ptr %15, i64 16
  %17 = tail call noundef ptr @_ZNKSt7__cxx1112basic_stringIcSt11char_traitsIcESaIcEE5c_strEv(ptr noundef nonnull align 8 dereferenceable(32) %16) #22
  br label %_ZNK32pxrInternal_v0_24__pxrReserved__7TfToken7GetTextEv.exit

_ZNK32pxrInternal_v0_24__pxrReserved__7TfToken7GetTextEv.exit: ; preds = %10, %14
  %18 = phi ptr [ %17, %14 ], [ @.str.14, %10 ]
  %19 = tail call noundef ptr @_ZNK32pxrInternal_v0_24__pxrReserved__7SdfPath7GetTextEv(ptr noundef nonnull align 4 dereferenceable(8) %2)
  call void @_ZN32pxrInternal_v0_24__pxrReserved__11TfStringifyINS_7VtArrayINS_7GfVec2dEEEEENSt7__cxx1112basic_stringIcSt11char_traitsIcESaIcEEERKT_(ptr dead_on_unwind nonnull writable sret(%"class.std::__cxx11::basic_string") align 8 %4, ptr noundef nonnull align 8 dereferenceable(40) %1)
  %20 = call noundef ptr @_ZNKSt7__cxx1112basic_stringIcSt11char_traitsIcESaIcEE5c_strEv(ptr noundef nonnull align 8 dereferenceable(32) %4) #22
  invoke void (ptr, ...) @_ZN32pxrInternal_v0_24__pxrReserved__7TfDebug6Helper3MsgEPKcz(ptr noundef nonnull @.str.22, ptr noundef %18, ptr noundef %19, ptr noundef %20)
          to label %21 unwind label %22

21:                                               ; preds = %_ZNK32pxrInternal_v0_24__pxrReserved__7TfToken7GetTextEv.exit
  call void @_ZNSt7__cxx1112basic_stringIcSt11char_traitsIcESaIcEED1Ev(ptr noundef nonnull align 8 dereferenceable(32) %4) #22
  br label %24

22:                                               ; preds = %_ZNK32pxrInternal_v0_24__pxrReserved__7TfToken7GetTextEv.exit
  %23 = landingpad { ptr, i32 }
          cleanup
  call void @_ZNSt7__cxx1112basic_stringIcSt11char_traitsIcESaIcEED1Ev(ptr noundef nonnull align 8 dereferenceable(32) %4) #22
  resume { ptr, i32 } %23

24:                                               ; preds = %_ZN32pxrInternal_v0_24__pxrReserved__7TfDebug9IsEnabledINS_38USD_AUTO_APPLY_API_SCHEMAS__DebugCodesEEEbT_.exit, %21
  ret void
}